target datalayout = "e-m:e-p270:32:32-p271:32:32-p272:64:64-i64:64-i128:128-f80:128-n8:16:32:64-S128"
target triple = "x86_64-pc-linux-gnu"

%struct.BufFile = type { i32, ptr, i8, i8, i8, ptr, ptr, ptr, i32, i64, i32, i32, %union.PGAlignedBlock }
%union.PGAlignedBlock = type { double, [8184 x i8] }

@CurrentResourceOwner = external global ptr, align 8
@.str.8 = private unnamed_addr constant [6 x i8] c"%s.%d\00", align 1

; Function Attrs: nounwind uwtable
define internal void @FileSetSegmentName(ptr noundef %0, ptr noundef %1, i32 noundef %2) #0 {
  %4 = alloca ptr, align 8
  %5 = alloca ptr, align 8
  %6 = alloca i32, align 4
  store ptr %0, ptr %4, align 8
  store ptr %1, ptr %5, align 8
  store i32 %2, ptr %6, align 4
  %7 = load ptr, ptr %4, align 8
  %8 = load ptr, ptr %5, align 8
  %9 = load i32, ptr %6, align 4
  %10 = call i32 (ptr, i64, ptr, ...) @pg_snprintf(ptr noundef %7, i64 noundef 1024, ptr noundef @.str.8, ptr noundef %8, i32 noundef %9)
  ret void
}

; Function Attrs: nounwind uwtable
define internal i32 @MakeNewFileSetSegment(ptr noundef %0, i32 noundef %1) #0 {
  %3 = alloca ptr, align 8
  %4 = alloca i32, align 4
  %5 = alloca [1024 x i8], align 16
  %6 = alloca i32, align 4
  store ptr %0, ptr %3, align 8
  store i32 %1, ptr %4, align 4
  call void @llvm.lifetime.start.p0(i64 1024, ptr %5) #8
  call void @llvm.lifetime.start.p0(i64 4, ptr %6) #8
  %7 = getelementptr inbounds [1024 x i8], ptr %5, i64 0, i64 0
  %8 = load ptr, ptr %3, align 8
  %9 = getelementptr inbounds nuw %struct.BufFile, ptr %8, i32 0, i32 6
  %10 = load ptr, ptr %9, align 8
  %11 = load i32, ptr %4, align 4
  %12 = add i32 %11, 1
  call void @FileSetSegmentName(ptr noundef %7, ptr noundef %10, i32 noundef %12)
  %13 = load ptr, ptr %3, align 8
  %14 = getelementptr inbounds nuw %struct.BufFile, ptr %13, i32 0, i32 5
  %15 = load ptr, ptr %14, align 8
  %16 = getelementptr inbounds [1024 x i8], ptr %5, i64 0, i64 0
  %17 = call zeroext i1 @FileSetDelete(ptr noundef %15, ptr noundef %16, i1 noundef zeroext true)
  %18 = getelementptr inbounds [1024 x i8], ptr %5, i64 0, i64 0
  %19 = load ptr, ptr %3, align 8
  %20 = getelementptr inbounds nuw %struct.BufFile, ptr %19, i32 0, i32 6
  %21 = load ptr, ptr %20, align 8
  %22 = load i32, ptr %4, align 4
  call void @FileSetSegmentName(ptr noundef %18, ptr noundef %21, i32 noundef %22)
  %23 = load ptr, ptr %3, align 8
  %24 = getelementptr inbounds nuw %struct.BufFile, ptr %23, i32 0, i32 5
  %25 = load ptr, ptr %24, align 8
  %26 = getelementptr inbounds [1024 x i8], ptr %5, i64 0, i64 0
  %27 = call i32 @FileSetCreate(ptr noundef %25, ptr noundef %26)
  store i32 %27, ptr %6, align 4
  %28 = load i32, ptr %6, align 4
  call void @llvm.lifetime.end.p0(i64 4, ptr %6) #8
  call void @llvm.lifetime.end.p0(i64 1024, ptr %5) #8
  ret i32 %28
}

; Function Attrs: nounwind uwtable
define internal ptr @makeBufFileCommon(i32 noundef %0) #0 {
  %2 = alloca i32, align 4
  %3 = alloca ptr, align 8
  store i32 %0, ptr %2, align 4
  call void @llvm.lifetime.start.p0(i64 8, ptr %3) #8
  %4 = call ptr @palloc(i64 noundef 8264)
  store ptr %4, ptr %3, align 8
  %5 = load i32, ptr %2, align 4
  %6 = load ptr, ptr %3, align 8
  %7 = getelementptr inbounds nuw %struct.BufFile, ptr %6, i32 0, i32 0
  store i32 %5, ptr %7, align 8
  %8 = load ptr, ptr %3, align 8
  %9 = getelementptr inbounds nuw %struct.BufFile, ptr %8, i32 0, i32 2
  store i8 0, ptr %9, align 8
  %10 = load ptr, ptr %3, align 8
  %11 = getelementptr inbounds nuw %struct.BufFile, ptr %10, i32 0, i32 3
  store i8 0, ptr %11, align 1
  %12 = load ptr, ptr @CurrentResourceOwner, align 8
  %13 = load ptr, ptr %3, align 8
  %14 = getelementptr inbounds nuw %struct.BufFile, ptr %13, i32 0, i32 7
  store ptr %12, ptr %14, align 8
  %15 = load ptr, ptr %3, align 8
  %16 = getelementptr inbounds nuw %struct.BufFile, ptr %15, i32 0, i32 8
  store i32 0, ptr %16, align 8
  %17 = load ptr, ptr %3, align 8
  %18 = getelementptr inbounds nuw %struct.BufFile, ptr %17, i32 0, i32 9
  store i64 0, ptr %18, align 8
  %19 = load ptr, ptr %3, align 8
  %20 = getelementptr inbounds nuw %struct.BufFile, ptr %19, i32 0, i32 10
  store i32 0, ptr %20, align 8
  %21 = load ptr, ptr %3, align 8
  %22 = getelementptr inbounds nuw %struct.BufFile, ptr %21, i32 0, i32 11
  store i32 0, ptr %22, align 4
  %23 = load ptr, ptr %3, align 8
  call void @llvm.lifetime.end.p0(i64 8, ptr %3) #8
  ret ptr %23
}

; Function Attrs: nounwind uwtable
define dso_local ptr @BufFileCreateFileSet(ptr noundef %0, ptr noundef %1) #0 {
  %3 = alloca ptr, align 8
  %4 = alloca ptr, align 8
  %5 = alloca ptr, align 8
  store ptr %0, ptr %3, align 8
  store ptr %1, ptr %4, align 8
  call void @llvm.lifetime.start.p0(i64 8, ptr %5) #8
  %6 = call ptr @makeBufFileCommon(i32 noundef 1)
  store ptr %6, ptr %5, align 8
  %7 = load ptr, ptr %3, align 8
  %8 = load ptr, ptr %5, align 8
  %9 = getelementptr inbounds nuw %struct.BufFile, ptr %8, i32 0, i32 5
  store ptr %7, ptr %9, align 8
  %10 = load ptr, ptr %4, align 8
  %11 = call ptr @pstrdup(ptr noundef %10)
  %12 = load ptr, ptr %5, align 8
  %13 = getelementptr inbounds nuw %struct.BufFile, ptr %12, i32 0, i32 6
  store ptr %11, ptr %13, align 8
  %14 = call ptr @palloc(i64 noundef 4)
  %15 = load ptr, ptr %5, align 8
  %16 = getelementptr inbounds nuw %struct.BufFile, ptr %15, i32 0, i32 1
  store ptr %14, ptr %16, align 8
  %17 = load ptr, ptr %5, align 8
  %18 = call i32 @MakeNewFileSetSegment(ptr noundef %17, i32 noundef 0)
  %19 = load ptr, ptr %5, align 8
  %20 = getelementptr inbounds nuw %struct.BufFile, ptr %19, i32 0, i32 1
  %21 = load ptr, ptr %20, align 8
  %22 = getelementptr inbounds i32, ptr %21, i64 0
  store i32 %18, ptr %22, align 4
  %23 = load ptr, ptr %5, align 8
  %24 = getelementptr inbounds nuw %struct.BufFile, ptr %23, i32 0, i32 4
  store i8 0, ptr %24, align 2
  %25 = load ptr, ptr %5, align 8
  call void @llvm.lifetime.end.p0(i64 8, ptr %5) #8
  ret ptr %25
}