; Function Attrs: nounwind uwtable
define dso_local noundef ptr @BufFileCreateFileSet(ptr noundef %0, ptr noundef %1) local_unnamed_addr #0 {
  %3 = alloca [1024 x i8], align 16
  %4 = tail call ptr @palloc(i64 noundef 8264) #10
  store i32 1, ptr %4, align 8
  %5 = getelementptr inbounds nuw i8, ptr %4, i64 16
  store i8 0, ptr %5, align 8
  %6 = getelementptr inbounds nuw i8, ptr %4, i64 17
  store i8 0, ptr %6, align 1
  %7 = load ptr, ptr @CurrentResourceOwner, align 8
  %8 = getelementptr inbounds nuw i8, ptr %4, i64 40
  store ptr %7, ptr %8, align 8
  %9 = getelementptr inbounds nuw i8, ptr %4, i64 48
  store i32 0, ptr %9, align 8
  %10 = getelementptr inbounds nuw i8, ptr %4, i64 56
  tail call void @llvm.memset.p0.i64(ptr noundef nonnull align 8 dereferenceable(16) %10, i8 0, i64 16, i1 false)
  %11 = getelementptr inbounds nuw i8, ptr %4, i64 24
  store ptr %0, ptr %11, align 8
  %12 = tail call ptr @pstrdup(ptr noundef %1) #10
  %13 = getelementptr inbounds nuw i8, ptr %4, i64 32
  store ptr %12, ptr %13, align 8
  %14 = tail call ptr @palloc(i64 noundef 4) #10
  %15 = getelementptr inbounds nuw i8, ptr %4, i64 8
  store ptr %14, ptr %15, align 8
  call void @llvm.lifetime.start.p0(i64 1024, ptr nonnull %3) #10
  %16 = load ptr, ptr %13, align 8
  %17 = call i32 (ptr, i64, ptr, ...) @pg_snprintf(ptr noundef nonnull %3, i64 noundef 1024, ptr noundef nonnull @.str.8, ptr noundef %16, i32 noundef 1) #10
  %18 = load ptr, ptr %11, align 8
  %19 = call zeroext i1 @FileSetDelete(ptr noundef %18, ptr noundef nonnull %3, i1 noundef zeroext true) #10
  %20 = load ptr, ptr %13, align 8
  %21 = call i32 (ptr, i64, ptr, ...) @pg_snprintf(ptr noundef nonnull %3, i64 noundef 1024, ptr noundef nonnull @.str.8, ptr noundef %20, i32 noundef 0) #10
  %22 = load ptr, ptr %11, align 8
  %23 = call i32 @FileSetCreate(ptr noundef %22, ptr noundef nonnull %3) #10
  call void @llvm.lifetime.end.p0(i64 1024, ptr nonnull %3) #10
  %24 = load ptr, ptr %15, align 8
  store i32 %23, ptr %24, align 4
  %25 = getelementptr inbounds nuw i8, ptr %4, i64 18
  store i8 0, ptr %25, align 2
  ret ptr %4
}